(dp0
Vengine
p1
S'pdflatex'
p2
sVpackages
p3
c__builtin__
set
p4
((lp5
Venumitem
p6
aVanysize
p7
aVwasysym
p8
aVfancyhdr
p9
aVgeometry
p10
aVinputenc
p11
aVamsmath
p12
aVamsfonts
p13
aVgraphicx
p14
aVamssymb
p15
atp16
Rp17
sVfiles_with_guttermarks
p18
g4
((lp19
S'MCD_2015_ABM_project_summary.tex'
p20
atp21
Rp22
sVsynctex
p23
I01
s.